; Function Attrs: mustprogress nounwind uwtable
define internal fastcc noundef zeroext i1 @_ZN12_GLOBAL__N_115PseudoOpBuilder15CanCaptureValueEPN5clang4ExprE(ptr nocapture noundef readonly %0) unnamed_addr #0 align 2 {
  %2 = getelementptr inbounds nuw i8, ptr %0, i64 1
  %3 = load i16, ptr %2, align 1
  %4 = and i16 %3, 3
  %.not6 = icmp eq i16 %4, 0
  br i1 %.not6, label %5, label %13

5:                                                ; preds = %1
  %6 = getelementptr inbounds nuw i8, ptr %0, i64 8
  %.sroa.0.0.copyload.i = load i64, ptr %6, align 8
  %7 = and i64 %.sroa.0.0.copyload.i, -16
  %8 = inttoptr i64 %7 to ptr
  %9 = load ptr, ptr %8, align 16
  %10 = tail call noundef ptr @_ZNK5clang4Type18getAsCXXRecordDeclEv(ptr noundef nonnull align 16 dereferenceable(24) %9) #18
  %.not = icmp eq ptr %10, null
  br i1 %.not, label %13, label %11

11:                                               ; preds = %5
  %12 = tail call noundef zeroext i1 @_ZNK5clang13CXXRecordDecl19isTriviallyCopyableEv(ptr noundef nonnull align 8 dereferenceable(144) %10) #18
  br label %13

13:                                               ; preds = %5, %1, %11
  %.0 = phi i1 [ %12, %11 ], [ true, %1 ], [ true, %5 ]
  ret i1 %.0
}